target datalayout = "e-m:e-p270:32:32-p271:32:32-p272:64:64-i64:64-i128:128-f80:128-n8:16:32:64-S128"
target triple = "x86_64-pc-linux-gnu"

; Function Attrs: nounwind uwtable
define internal ptr @kw_ctx_alloc() #0 {
  %1 = alloca ptr, align 8
  call void @llvm.lifetime.start.p0(i64 8, ptr %1) #5
  %2 = call noalias ptr @calloc(i64 noundef 1, i64 noundef 96) #6
  store ptr %2, ptr %1, align 8, !tbaa !3
  %3 = load ptr, ptr %1, align 8, !tbaa !3
  %4 = icmp ne ptr %3, null
  br i1 %4, label %5, label %7

5:                                                ; preds = %0
  %6 = load ptr, ptr %1, align 8, !tbaa !3
  call void @mbedtls_nist_kw_init(ptr noundef %6)
  br label %7

7:                                                ; preds = %5, %0
  %8 = load ptr, ptr %1, align 8, !tbaa !3
  call void @llvm.lifetime.end.p0(i64 8, ptr %1) #5
  ret ptr %8
}