; Function Attrs: nounwind uwtable
define internal noundef ptr @kw_ctx_alloc() #0 {
  %1 = tail call noalias dereferenceable_or_null(96) ptr @calloc(i64 noundef 1, i64 noundef 96) #5
  %.not = icmp eq ptr %1, null
  br i1 %.not, label %3, label %2

2:                                                ; preds = %0
  tail call void @mbedtls_nist_kw_init(ptr noundef nonnull %1) #4
  br label %3

3:                                                ; preds = %2, %0
  ret ptr %1
}